target datalayout = "e-m:e-p270:32:32-p271:32:32-p272:64:64-i64:64-i128:128-f80:128-n8:16:32:64-S128"
target triple = "x86_64-pc-linux-gnu"

%struct._address = type { i32, i32, ptr, ptr }
%struct._packet_info = type { ptr, ptr, i32, i32, %struct.nstime_t, %struct.nstime_t, %struct.nstime_t, i8, ptr, ptr, ptr, ptr, %struct._address, %struct._address, %struct._address, %struct._address, %struct._address, %struct._address, i32, ptr, i8, [3 x i8], %struct.anon, i32, i32, i32, i32, ptr, i8, ptr, ptr, i16, i16, i32, i32, i16, i32, i32, ptr, ptr, ptr, i8, i8, i16, i16, i16, i32, i16, i16, ptr, ptr, ptr, ptr, ptr, i32, i32 }
%struct.nstime_t = type { i64, i32 }
%struct.anon = type { i8, [3 x i8] }
%struct.reassembly_table = type { ptr, ptr, ptr, ptr, ptr }
%struct._fragment_head = type { ptr, ptr, i32, i32, i32, i32, i32, i32, i32, i8, i32, ptr, ptr }
%struct._fragment_item = type { ptr, i32, i32, i32, i32, ptr }
%struct._reassembled_key = type { i32, i32 }
%struct._frame_data = type <{ i32, i32, i32, i32, i32, [4 x i8], i64, ptr, ptr, ptr, i8, i16, [5 x i8], %struct.nstime_t, %struct.nstime_t, i32, i32 }>

; Function Attrs: null_pointer_is_valid sspstrong uwtable
define internal void @reassembled_table_insert(ptr noundef %0, ptr noundef %1, ptr noundef %2) #1 {
  %4 = alloca ptr, align 8
  %5 = alloca ptr, align 8
  %6 = alloca ptr, align 8
  %7 = alloca ptr, align 8
  store ptr %0, ptr %4, align 8
  store ptr %1, ptr %5, align 8
  store ptr %2, ptr %6, align 8
  call void @llvm.lifetime.start.p0(i64 8, ptr %7) #16
  %8 = load ptr, ptr %6, align 8
  %9 = getelementptr inbounds nuw %struct._fragment_head, ptr %8, i32 0, i32 2
  %10 = load i32, ptr %9, align 8
  %11 = add i32 %10, 1
  store i32 %11, ptr %9, align 8
  %12 = load ptr, ptr %4, align 8
  %13 = load ptr, ptr %5, align 8
  %14 = call ptr @g_hash_table_lookup(ptr noundef %12, ptr noundef %13)
  store ptr %14, ptr %7, align 8
  %15 = icmp ne ptr %14, null
  br i1 %15, label %16, label %42

16:                                               ; preds = %3
  %17 = load ptr, ptr %7, align 8
  %18 = getelementptr inbounds nuw %struct._fragment_head, ptr %17, i32 0, i32 2
  %19 = load i32, ptr %18, align 8
  %20 = icmp eq i32 %19, 1
  br i1 %20, label %21, label %41

21:                                               ; preds = %16
  %22 = load ptr, ptr %7, align 8
  %23 = getelementptr inbounds nuw %struct._fragment_head, ptr %22, i32 0, i32 11
  %24 = load ptr, ptr %23, align 8
  %25 = icmp ne ptr %24, null
  br i1 %25, label %26, label %38

26:                                               ; preds = %21
  %27 = load ptr, ptr %6, align 8
  %28 = getelementptr inbounds nuw %struct._fragment_head, ptr %27, i32 0, i32 11
  %29 = load ptr, ptr %28, align 8
  %30 = icmp ne ptr %29, null
  br i1 %30, label %31, label %38

31:                                               ; preds = %26
  %32 = load ptr, ptr %6, align 8
  %33 = getelementptr inbounds nuw %struct._fragment_head, ptr %32, i32 0, i32 11
  %34 = load ptr, ptr %33, align 8
  %35 = load ptr, ptr %7, align 8
  %36 = getelementptr inbounds nuw %struct._fragment_head, ptr %35, i32 0, i32 11
  %37 = load ptr, ptr %36, align 8
  call void @tvb_set_child_real_data_tvbuff(ptr noundef %34, ptr noundef %37)
  br label %38

38:                                               ; preds = %31, %26, %21
  %39 = load ptr, ptr %7, align 8
  %40 = getelementptr inbounds nuw %struct._fragment_head, ptr %39, i32 0, i32 11
  store ptr null, ptr %40, align 8
  br label %41

41:                                               ; preds = %38, %16
  br label %42

42:                                               ; preds = %41, %3
  %43 = load ptr, ptr %4, align 8
  %44 = load ptr, ptr %5, align 8
  %45 = load ptr, ptr %6, align 8
  %46 = call i32 @g_hash_table_insert(ptr noundef %43, ptr noundef %44, ptr noundef %45)
  call void @llvm.lifetime.end.p0(i64 8, ptr %7) #16
  ret void
}

; Function Attrs: null_pointer_is_valid sspstrong uwtable
define internal void @fragment_unhash(ptr noundef %0, ptr noundef %1) #1 {
  %3 = alloca ptr, align 8
  %4 = alloca ptr, align 8
  store ptr %0, ptr %3, align 8
  store ptr %1, ptr %4, align 8
  %5 = load ptr, ptr %3, align 8
  %6 = getelementptr inbounds nuw %struct.reassembly_table, ptr %5, i32 0, i32 0
  %7 = load ptr, ptr %6, align 8
  %8 = load ptr, ptr %4, align 8
  %9 = call i32 @g_hash_table_remove(ptr noundef %7, ptr noundef %8)
  ret void
}

; Function Attrs: null_pointer_is_valid sspstrong uwtable
define internal ptr @lookup_fd_head(ptr noundef %0, ptr noundef %1, i32 noundef %2, ptr noundef %3, ptr noundef %4) #1 {
  %6 = alloca ptr, align 8
  %7 = alloca ptr, align 8
  %8 = alloca i32, align 4
  %9 = alloca ptr, align 8
  %10 = alloca ptr, align 8
  %11 = alloca ptr, align 8
  %12 = alloca ptr, align 8
  store ptr %0, ptr %6, align 8
  store ptr %1, ptr %7, align 8
  store i32 %2, ptr %8, align 4
  store ptr %3, ptr %9, align 8
  store ptr %4, ptr %10, align 8
  call void @llvm.lifetime.start.p0(i64 8, ptr %11) #16
  call void @llvm.lifetime.start.p0(i64 8, ptr %12) #16
  %13 = load ptr, ptr %6, align 8
  %14 = getelementptr inbounds nuw %struct.reassembly_table, ptr %13, i32 0, i32 2
  %15 = load ptr, ptr %14, align 8
  %16 = load ptr, ptr %7, align 8
  %17 = load i32, ptr %8, align 4
  %18 = load ptr, ptr %9, align 8
  %19 = call ptr %15(ptr noundef %16, i32 noundef %17, ptr noundef %18)
  store ptr %19, ptr %11, align 8
  %20 = load ptr, ptr %6, align 8
  %21 = getelementptr inbounds nuw %struct.reassembly_table, ptr %20, i32 0, i32 0
  %22 = load ptr, ptr %21, align 8
  %23 = load ptr, ptr %11, align 8
  %24 = load ptr, ptr %10, align 8
  %25 = call i32 @g_hash_table_lookup_extended(ptr noundef %22, ptr noundef %23, ptr noundef %24, ptr noundef %12)
  %26 = icmp ne i32 %25, 0
  br i1 %26, label %28, label %27

27:                                               ; preds = %5
  store ptr null, ptr %12, align 8
  br label %28

28:                                               ; preds = %27, %5
  %29 = load ptr, ptr %6, align 8
  %30 = getelementptr inbounds nuw %struct.reassembly_table, ptr %29, i32 0, i32 4
  %31 = load ptr, ptr %30, align 8
  %32 = load ptr, ptr %11, align 8
  call void %31(ptr noundef %32)
  %33 = load ptr, ptr %12, align 8
  call void @llvm.lifetime.end.p0(i64 8, ptr %12) #16
  call void @llvm.lifetime.end.p0(i64 8, ptr %11) #16
  ret ptr %33
}

; Function Attrs: null_pointer_is_valid sspstrong uwtable
define ptr @fragment_end_seq_next(ptr noundef %0, ptr noundef %1, i32 noundef %2, ptr noundef %3) #1 {
  %5 = alloca ptr, align 8
  %6 = alloca ptr, align 8
  %7 = alloca ptr, align 8
  %8 = alloca i32, align 4
  %9 = alloca ptr, align 8
  %10 = alloca %struct._reassembled_key, align 4
  %11 = alloca ptr, align 8
  %12 = alloca ptr, align 8
  %13 = alloca ptr, align 8
  %14 = alloca ptr, align 8
  %15 = alloca i32, align 4
  %16 = alloca i32, align 4
  store ptr %0, ptr %6, align 8
  store ptr %1, ptr %7, align 8
  store i32 %2, ptr %8, align 4
  store ptr %3, ptr %9, align 8
  call void @llvm.lifetime.start.p0(i64 8, ptr %10) #16
  call void @llvm.lifetime.start.p0(i64 8, ptr %11) #16
  call void @llvm.lifetime.start.p0(i64 8, ptr %12) #16
  call void @llvm.lifetime.start.p0(i64 8, ptr %13) #16
  call void @llvm.lifetime.start.p0(i64 8, ptr %14) #16
  call void @llvm.lifetime.start.p0(i64 4, ptr %15) #16
  store i32 0, ptr %15, align 4
  %17 = load ptr, ptr %7, align 8
  %18 = getelementptr inbounds nuw %struct._packet_info, ptr %17, i32 0, i32 8
  %19 = load ptr, ptr %18, align 8
  %20 = getelementptr inbounds nuw %struct._frame_data, ptr %19, i32 0, i32 11
  %21 = load i16, ptr %20, align 1
  %22 = lshr i16 %21, 3
  %23 = and i16 %22, 1
  %24 = zext i16 %23 to i32
  %25 = icmp ne i32 %24, 0
  br i1 %25, label %26, label %37

26:                                               ; preds = %4
  %27 = load ptr, ptr %7, align 8
  %28 = getelementptr inbounds nuw %struct._packet_info, ptr %27, i32 0, i32 3
  %29 = load i32, ptr %28, align 4
  %30 = getelementptr inbounds nuw %struct._reassembled_key, ptr %10, i32 0, i32 1
  store i32 %29, ptr %30, align 4
  %31 = load i32, ptr %8, align 4
  %32 = getelementptr inbounds nuw %struct._reassembled_key, ptr %10, i32 0, i32 0
  store i32 %31, ptr %32, align 4
  %33 = load ptr, ptr %6, align 8
  %34 = getelementptr inbounds nuw %struct.reassembly_table, ptr %33, i32 0, i32 1
  %35 = load ptr, ptr %34, align 8
  %36 = call ptr @g_hash_table_lookup(ptr noundef %35, ptr noundef %10)
  store ptr %36, ptr %5, align 8
  store i32 1, ptr %16, align 4
  br label %105

37:                                               ; preds = %4
  %38 = load ptr, ptr %6, align 8
  %39 = load ptr, ptr %7, align 8
  %40 = load i32, ptr %8, align 4
  %41 = load ptr, ptr %9, align 8
  %42 = call ptr @lookup_fd_head(ptr noundef %38, ptr noundef %39, i32 noundef %40, ptr noundef %41, ptr noundef %14)
  store ptr %42, ptr %12, align 8
  %43 = load ptr, ptr %12, align 8
  %44 = icmp ne ptr %43, null
  br i1 %44, label %45, label %104

45:                                               ; preds = %37
  %46 = load ptr, ptr %12, align 8
  %47 = getelementptr inbounds nuw %struct._fragment_head, ptr %46, i32 0, i32 0
  %48 = load ptr, ptr %47, align 8
  store ptr %48, ptr %13, align 8
  br label %49

49:                                               ; preds = %63, %45
  %50 = load ptr, ptr %13, align 8
  %51 = icmp ne ptr %50, null
  br i1 %51, label %52, label %67

52:                                               ; preds = %49
  %53 = load ptr, ptr %13, align 8
  %54 = getelementptr inbounds nuw %struct._fragment_item, ptr %53, i32 0, i32 2
  %55 = load i32, ptr %54, align 4
  %56 = load i32, ptr %15, align 4
  %57 = icmp ugt i32 %55, %56
  br i1 %57, label %58, label %62

58:                                               ; preds = %52
  %59 = load ptr, ptr %13, align 8
  %60 = getelementptr inbounds nuw %struct._fragment_item, ptr %59, i32 0, i32 2
  %61 = load i32, ptr %60, align 4
  store i32 %61, ptr %15, align 4
  br label %62

62:                                               ; preds = %58, %52
  br label %63

63:                                               ; preds = %62
  %64 = load ptr, ptr %13, align 8
  %65 = getelementptr inbounds nuw %struct._fragment_item, ptr %64, i32 0, i32 0
  %66 = load ptr, ptr %65, align 8
  store ptr %66, ptr %13, align 8
  br label %49, !llvm.loop !27

67:                                               ; preds = %49
  %68 = load i32, ptr %15, align 4
  %69 = load ptr, ptr %12, align 8
  %70 = getelementptr inbounds nuw %struct._fragment_head, ptr %69, i32 0, i32 7
  store i32 %68, ptr %70, align 4
  %71 = load ptr, ptr %12, align 8
  %72 = getelementptr inbounds nuw %struct._fragment_head, ptr %71, i32 0, i32 10
  %73 = load i32, ptr %72, align 8
  %74 = or i32 %73, 1024
  store i32 %74, ptr %72, align 8
  %75 = load ptr, ptr %12, align 8
  %76 = load ptr, ptr %7, align 8
  call void @fragment_defragment_and_free(ptr noundef %75, ptr noundef %76)
  %77 = load ptr, ptr %6, align 8
  %78 = load ptr, ptr %14, align 8
  call void @fragment_unhash(ptr noundef %77, ptr noundef %78)
  %79 = load ptr, ptr %6, align 8
  %80 = load ptr, ptr %12, align 8
  %81 = load ptr, ptr %7, align 8
  %82 = load i32, ptr %8, align 4
  call void @fragment_reassembled(ptr noundef %79, ptr noundef %80, ptr noundef %81, i32 noundef %82)
  %83 = load ptr, ptr %12, align 8
  %84 = getelementptr inbounds nuw %struct._fragment_head, ptr %83, i32 0, i32 0
  %85 = load ptr, ptr %84, align 8
  %86 = icmp ne ptr %85, null
  br i1 %86, label %87, label %102

87:                                               ; preds = %67
  %88 = call noalias ptr @g_slice_alloc(i64 noundef 8) #17
  store ptr %88, ptr %11, align 8
  %89 = load ptr, ptr %7, align 8
  %90 = getelementptr inbounds nuw %struct._packet_info, ptr %89, i32 0, i32 3
  %91 = load i32, ptr %90, align 4
  %92 = load ptr, ptr %11, align 8
  %93 = getelementptr inbounds nuw %struct._reassembled_key, ptr %92, i32 0, i32 1
  store i32 %91, ptr %93, align 4
  %94 = load i32, ptr %8, align 4
  %95 = load ptr, ptr %11, align 8
  %96 = getelementptr inbounds nuw %struct._reassembled_key, ptr %95, i32 0, i32 0
  store i32 %94, ptr %96, align 4
  %97 = load ptr, ptr %6, align 8
  %98 = getelementptr inbounds nuw %struct.reassembly_table, ptr %97, i32 0, i32 1
  %99 = load ptr, ptr %98, align 8
  %100 = load ptr, ptr %11, align 8
  %101 = load ptr, ptr %12, align 8
  call void @reassembled_table_insert(ptr noundef %99, ptr noundef %100, ptr noundef %101)
  br label %102

102:                                              ; preds = %87, %67
  %103 = load ptr, ptr %12, align 8
  store ptr %103, ptr %5, align 8
  store i32 1, ptr %16, align 4
  br label %105

104:                                              ; preds = %37
  store ptr null, ptr %5, align 8
  store i32 1, ptr %16, align 4
  br label %105

105:                                              ; preds = %104, %102, %26
  call void @llvm.lifetime.end.p0(i64 4, ptr %15) #16
  call void @llvm.lifetime.end.p0(i64 8, ptr %14) #16
  call void @llvm.lifetime.end.p0(i64 8, ptr %13) #16
  call void @llvm.lifetime.end.p0(i64 8, ptr %12) #16
  call void @llvm.lifetime.end.p0(i64 8, ptr %11) #16
  call void @llvm.lifetime.end.p0(i64 8, ptr %10) #16
  %106 = load ptr, ptr %5, align 8
  ret ptr %106
}