; Function Attrs: null_pointer_is_valid sspstrong uwtable
define ptr @fragment_end_seq_next(ptr noundef readonly captures(none) %0, ptr noundef %1, i32 noundef %2, ptr noundef %3) local_unnamed_addr #2 {
  %5 = alloca ptr, align 8
  %6 = alloca %struct._reassembled_key, align 4
  %7 = alloca ptr, align 8
  call void @llvm.lifetime.start.p0(i64 8, ptr nonnull %6) #18
  call void @llvm.lifetime.start.p0(i64 8, ptr nonnull %7) #18
  %8 = getelementptr inbounds nuw i8, ptr %1, i64 80
  %9 = load ptr, ptr %8, align 8
  %10 = getelementptr inbounds nuw i8, ptr %9, i64 57
  %11 = load i16, ptr %10, align 1
  %12 = and i16 %11, 8
  %.not = icmp eq i16 %12, 0
  br i1 %.not, label %20, label %13

13:                                               ; preds = %4
  %14 = getelementptr inbounds nuw i8, ptr %1, i64 20
  %15 = load i32, ptr %14, align 4
  %16 = getelementptr inbounds nuw i8, ptr %6, i64 4
  store i32 %15, ptr %16, align 4
  store i32 %2, ptr %6, align 4
  %17 = getelementptr inbounds nuw i8, ptr %0, i64 8
  %18 = load ptr, ptr %17, align 8
  %19 = call ptr @g_hash_table_lookup(ptr noundef %18, ptr noundef nonnull %6)
  br label %63

20:                                               ; preds = %4
  call void @llvm.lifetime.start.p0(i64 8, ptr nonnull %5) #18
  %21 = getelementptr inbounds nuw i8, ptr %0, i64 16
  %22 = load ptr, ptr %21, align 8
  %23 = tail call ptr %22(ptr noundef %1, i32 noundef %2, ptr noundef %3)
  %24 = load ptr, ptr %0, align 8
  %25 = call i32 @g_hash_table_lookup_extended(ptr noundef %24, ptr noundef %23, ptr noundef nonnull %7, ptr noundef nonnull %5)
  %.not.i = icmp eq i32 %25, 0
  br i1 %.not.i, label %26, label %lookup_fd_head.exit

26:                                               ; preds = %20
  store ptr null, ptr %5, align 8
  br label %lookup_fd_head.exit

lookup_fd_head.exit:                              ; preds = %20, %26
  %27 = getelementptr inbounds nuw i8, ptr %0, i64 32
  %28 = load ptr, ptr %27, align 8
  call void %28(ptr noundef %23)
  %29 = load ptr, ptr %5, align 8
  call void @llvm.lifetime.end.p0(i64 8, ptr nonnull %5) #18
  %.not38 = icmp eq ptr %29, null
  br i1 %.not38, label %63, label %.preheader

.preheader:                                       ; preds = %lookup_fd_head.exit
  %.03442 = load ptr, ptr %29, align 8
  %.not3943 = icmp eq ptr %.03442, null
  br i1 %.not3943, label %._crit_edge, label %.lr.ph

.lr.ph:                                           ; preds = %.preheader, %.lr.ph
  %.03445 = phi ptr [ %.034, %.lr.ph ], [ %.03442, %.preheader ]
  %.044 = phi i32 [ %spec.select, %.lr.ph ], [ 0, %.preheader ]
  %30 = getelementptr inbounds nuw i8, ptr %.03445, i64 12
  %31 = load i32, ptr %30, align 4
  %spec.select = call i32 @llvm.umax.i32(i32 %31, i32 %.044)
  %.034 = load ptr, ptr %.03445, align 8
  %.not39 = icmp eq ptr %.034, null
  br i1 %.not39, label %._crit_edge, label %.lr.ph, !llvm.loop !36

._crit_edge:                                      ; preds = %.lr.ph, %.preheader
  %.0.lcssa = phi i32 [ 0, %.preheader ], [ %spec.select, %.lr.ph ]
  %32 = getelementptr inbounds nuw i8, ptr %29, i64 36
  store i32 %.0.lcssa, ptr %32, align 4
  %33 = getelementptr inbounds nuw i8, ptr %29, i64 48
  %34 = load i32, ptr %33, align 8
  %35 = or i32 %34, 1024
  store i32 %35, ptr %33, align 8
  call fastcc void @fragment_defragment_and_free(ptr noundef nonnull %29, ptr noundef %1)
  %36 = load ptr, ptr %7, align 8
  %.val = load ptr, ptr %0, align 8
  %37 = call i32 @g_hash_table_remove(ptr noundef %.val, ptr noundef %36)
  call fastcc void @fragment_reassembled(ptr noundef %0, ptr noundef nonnull %29, ptr noundef %1, i32 noundef %2)
  %38 = load ptr, ptr %29, align 8
  %.not40 = icmp eq ptr %38, null
  br i1 %.not40, label %63, label %39

39:                                               ; preds = %._crit_edge
  %40 = call noalias dereferenceable_or_null(8) ptr @g_slice_alloc(i64 noundef 8) #15
  %41 = getelementptr inbounds nuw i8, ptr %1, i64 20
  %42 = load i32, ptr %41, align 4
  %43 = getelementptr inbounds nuw i8, ptr %40, i64 4
  store i32 %42, ptr %43, align 4
  store i32 %2, ptr %40, align 4
  %44 = getelementptr inbounds nuw i8, ptr %0, i64 8
  %45 = load ptr, ptr %44, align 8
  %46 = getelementptr inbounds nuw i8, ptr %29, i64 16
  %47 = load i32, ptr %46, align 8
  %48 = add i32 %47, 1
  store i32 %48, ptr %46, align 8
  %49 = call ptr @g_hash_table_lookup(ptr noundef %45, ptr noundef %40)
  %.not.i41 = icmp eq ptr %49, null
  br i1 %.not.i41, label %reassembled_table_insert.exit, label %50

50:                                               ; preds = %39
  %51 = getelementptr inbounds nuw i8, ptr %49, i64 16
  %52 = load i32, ptr %51, align 8
  %53 = icmp eq i32 %52, 1
  br i1 %53, label %54, label %reassembled_table_insert.exit

54:                                               ; preds = %50
  %55 = getelementptr inbounds nuw i8, ptr %49, i64 56
  %56 = load ptr, ptr %55, align 8
  %.not14.i = icmp eq ptr %56, null
  br i1 %.not14.i, label %61, label %57

57:                                               ; preds = %54
  %58 = getelementptr inbounds nuw i8, ptr %29, i64 56
  %59 = load ptr, ptr %58, align 8
  %.not15.i = icmp eq ptr %59, null
  br i1 %.not15.i, label %61, label %60

60:                                               ; preds = %57
  call void @tvb_set_child_real_data_tvbuff(ptr noundef nonnull %59, ptr noundef nonnull %56)
  br label %61

61:                                               ; preds = %60, %57, %54
  store ptr null, ptr %55, align 8
  br label %reassembled_table_insert.exit

reassembled_table_insert.exit:                    ; preds = %39, %50, %61
  %62 = call i32 @g_hash_table_insert(ptr noundef %45, ptr noundef %40, ptr noundef nonnull %29)
  br label %63

63:                                               ; preds = %lookup_fd_head.exit, %._crit_edge, %reassembled_table_insert.exit, %13
  %.035 = phi ptr [ %19, %13 ], [ %29, %reassembled_table_insert.exit ], [ %29, %._crit_edge ], [ null, %lookup_fd_head.exit ]
  call void @llvm.lifetime.end.p0(i64 8, ptr nonnull %7) #18
  call void @llvm.lifetime.end.p0(i64 8, ptr nonnull %6) #18
  ret ptr %.035
}